; Function Attrs: mustprogress uwtable
define hidden noundef zeroext i1 @_ZNK4cvc58internal6theory11quantifiers4inst19PatternTermSelector15isUsableTriggerENS0_12NodeTemplateILb1EEES6_(ptr noundef nonnull readonly align 8 captures(none) dereferenceable(43) %0, ptr noundef readonly captures(none) %1, ptr noundef readonly captures(none) %2) local_unnamed_addr #3 align 2 personality ptr @__gxx_personality_v0 {
  %4 = alloca %"class.cvc5::internal::NodeTemplate", align 8
  %5 = alloca %"class.cvc5::internal::NodeTemplate", align 8
  %6 = alloca %"class.cvc5::internal::NodeTemplate", align 8
  call void @llvm.lifetime.start.p0(i64 8, ptr nonnull %4) #24
  %7 = load ptr, ptr %1, align 8, !tbaa !3
  store ptr %7, ptr %5, align 8, !tbaa !3
  %8 = load i64, ptr %7, align 8
  %9 = lshr i64 %8, 40
  %10 = trunc nuw nsw i64 %9 to i32
  %11 = and i32 %10, 1048575
  %12 = icmp samesign ult i32 %11, 1048574
  br i1 %12, label %13, label %18, !prof !9

13:                                               ; preds = %3
  %14 = add i64 %8, 1099511627776
  %15 = and i64 %14, 1152920405095219200
  %16 = and i64 %8, -1152920405095219201
  %17 = or disjoint i64 %15, %16
  store i64 %17, ptr %7, align 8
  br label %_ZN4cvc58internal12NodeTemplateILb1EEC2ERKS2_.exit

18:                                               ; preds = %3
  %19 = icmp eq i32 %11, 1048574
  br i1 %19, label %20, label %_ZN4cvc58internal12NodeTemplateILb1EEC2ERKS2_.exit, !prof !10

20:                                               ; preds = %18
  %21 = or i64 %8, 1152920405095219200
  store i64 %21, ptr %7, align 8
  tail call void @_ZN4cvc58internal4expr9NodeValue20markRefCountMaxedOutEv(ptr noundef nonnull align 8 dereferenceable(24) %7)
  br label %_ZN4cvc58internal12NodeTemplateILb1EEC2ERKS2_.exit

_ZN4cvc58internal12NodeTemplateILb1EEC2ERKS2_.exit: ; preds = %13, %18, %20
  %22 = load ptr, ptr %2, align 8, !tbaa !3
  store ptr %22, ptr %6, align 8, !tbaa !3
  %23 = load i64, ptr %22, align 8
  %24 = lshr i64 %23, 40
  %25 = trunc nuw nsw i64 %24 to i32
  %26 = and i32 %25, 1048575
  %27 = icmp samesign ult i32 %26, 1048574
  br i1 %27, label %28, label %33, !prof !9

28:                                               ; preds = %_ZN4cvc58internal12NodeTemplateILb1EEC2ERKS2_.exit
  %29 = add i64 %23, 1099511627776
  %30 = and i64 %29, 1152920405095219200
  %31 = and i64 %23, -1152920405095219201
  %32 = or disjoint i64 %30, %31
  store i64 %32, ptr %22, align 8
  br label %_ZN4cvc58internal12NodeTemplateILb1EEC2ERKS2_.exit7

33:                                               ; preds = %_ZN4cvc58internal12NodeTemplateILb1EEC2ERKS2_.exit
  %34 = icmp eq i32 %26, 1048574
  br i1 %34, label %35, label %_ZN4cvc58internal12NodeTemplateILb1EEC2ERKS2_.exit7, !prof !10

35:                                               ; preds = %33
  %36 = or i64 %23, 1152920405095219200
  store i64 %36, ptr %22, align 8
  invoke void @_ZN4cvc58internal4expr9NodeValue20markRefCountMaxedOutEv(ptr noundef nonnull align 8 dereferenceable(24) %22)
          to label %_ZN4cvc58internal12NodeTemplateILb1EEC2ERKS2_.exit7 unwind label %89

_ZN4cvc58internal12NodeTemplateILb1EEC2ERKS2_.exit7: ; preds = %33, %28, %35
  invoke void @_ZNK4cvc58internal6theory11quantifiers4inst19PatternTermSelector18getIsUsableTriggerENS0_12NodeTemplateILb1EEES6_(ptr dead_on_unwind nonnull writable sret(%"class.cvc5::internal::NodeTemplate") align 8 %4, ptr noundef nonnull align 8 dereferenceable(43) %0, ptr noundef nonnull %5, ptr noundef nonnull %6)
          to label %37 unwind label %91

37:                                               ; preds = %_ZN4cvc58internal12NodeTemplateILb1EEC2ERKS2_.exit7
  %38 = load i64, ptr %22, align 8
  %39 = and i64 %38, 1152920405095219200
  %.not.i.i = icmp eq i64 %39, 1152920405095219200
  br i1 %.not.i.i, label %_ZN4cvc58internal12NodeTemplateILb1EED2Ev.exit, label %40, !prof !10

40:                                               ; preds = %37
  %41 = add i64 %38, 1152920405095219200
  %42 = and i64 %41, 1152920405095219200
  %43 = and i64 %38, -1152920405095219201
  %44 = or disjoint i64 %42, %43
  store i64 %44, ptr %22, align 8
  %45 = icmp eq i64 %42, 0
  br i1 %45, label %46, label %_ZN4cvc58internal12NodeTemplateILb1EED2Ev.exit, !prof !10

46:                                               ; preds = %40
  invoke void @_ZN4cvc58internal4expr9NodeValue15markForDeletionEv(ptr noundef nonnull align 8 dereferenceable(24) %22)
          to label %_ZN4cvc58internal12NodeTemplateILb1EED2Ev.exit unwind label %47

47:                                               ; preds = %46
  %48 = landingpad { ptr, i32 }
          catch ptr null
  %49 = extractvalue { ptr, i32 } %48, 0
  call void @__clang_call_terminate(ptr %49) #25
  unreachable

_ZN4cvc58internal12NodeTemplateILb1EED2Ev.exit:   ; preds = %37, %40, %46
  %50 = load ptr, ptr %5, align 8, !tbaa !3
  %51 = load i64, ptr %50, align 8
  %52 = and i64 %51, 1152920405095219200
  %.not.i.i8 = icmp eq i64 %52, 1152920405095219200
  br i1 %.not.i.i8, label %_ZN4cvc58internal12NodeTemplateILb1EED2Ev.exit9, label %53, !prof !10

53:                                               ; preds = %_ZN4cvc58internal12NodeTemplateILb1EED2Ev.exit
  %54 = add i64 %51, 1152920405095219200
  %55 = and i64 %54, 1152920405095219200
  %56 = and i64 %51, -1152920405095219201
  %57 = or disjoint i64 %55, %56
  store i64 %57, ptr %50, align 8
  %58 = icmp eq i64 %55, 0
  br i1 %58, label %59, label %_ZN4cvc58internal12NodeTemplateILb1EED2Ev.exit9, !prof !10

59:                                               ; preds = %53
  invoke void @_ZN4cvc58internal4expr9NodeValue15markForDeletionEv(ptr noundef nonnull align 8 dereferenceable(24) %50)
          to label %_ZN4cvc58internal12NodeTemplateILb1EED2Ev.exit9 unwind label %60

60:                                               ; preds = %59
  %61 = landingpad { ptr, i32 }
          catch ptr null
  %62 = extractvalue { ptr, i32 } %61, 0
  call void @__clang_call_terminate(ptr %62) #25
  unreachable

_ZN4cvc58internal12NodeTemplateILb1EED2Ev.exit9:  ; preds = %_ZN4cvc58internal12NodeTemplateILb1EED2Ev.exit, %53, %59
  %63 = load ptr, ptr %4, align 8, !tbaa !3
  %64 = load atomic i8, ptr @_ZGVZN4cvc58internal4expr9NodeValue4nullEvE6s_null acquire, align 8
  %65 = icmp eq i8 %64, 0
  br i1 %65, label %66, label %73, !prof !264

66:                                               ; preds = %_ZN4cvc58internal12NodeTemplateILb1EED2Ev.exit9
  %67 = call i32 @__cxa_guard_acquire(ptr nonnull @_ZGVZN4cvc58internal4expr9NodeValue4nullEvE6s_null) #24
  %.not.i.i10 = icmp eq i32 %67, 0
  br i1 %.not.i.i10, label %73, label %68

68:                                               ; preds = %66
  %69 = invoke noalias noundef nonnull dereferenceable(24) ptr @_Znwm(i64 noundef 24) #22
          to label %70 unwind label %.body

70:                                               ; preds = %68
  store i64 1152920405095219200, ptr %69, align 8
  %71 = getelementptr inbounds nuw i8, ptr %69, i64 8
  call void @llvm.memset.p0.i64(ptr noundef nonnull align 8 dereferenceable(16) %71, i8 0, i64 16, i1 false)
  store ptr %69, ptr @_ZZN4cvc58internal4expr9NodeValue4nullEvE6s_null, align 8, !tbaa !265
  call void @__cxa_guard_release(ptr nonnull @_ZGVZN4cvc58internal4expr9NodeValue4nullEvE6s_null) #24
  br label %73

.body:                                            ; preds = %68
  %72 = landingpad { ptr, i32 }
          cleanup
  call void @__cxa_guard_abort(ptr nonnull @_ZGVZN4cvc58internal4expr9NodeValue4nullEvE6s_null) #24
  br label %93

73:                                               ; preds = %70, %66, %_ZN4cvc58internal12NodeTemplateILb1EED2Ev.exit9
  %74 = load ptr, ptr @_ZZN4cvc58internal4expr9NodeValue4nullEvE6s_null, align 8, !tbaa !265
  %75 = load ptr, ptr %4, align 8, !tbaa !3
  %76 = load i64, ptr %75, align 8
  %77 = and i64 %76, 1152920405095219200
  %.not.i.i11 = icmp eq i64 %77, 1152920405095219200
  br i1 %.not.i.i11, label %_ZN4cvc58internal12NodeTemplateILb1EED2Ev.exit12, label %78, !prof !10

78:                                               ; preds = %73
  %79 = add i64 %76, 1152920405095219200
  %80 = and i64 %79, 1152920405095219200
  %81 = and i64 %76, -1152920405095219201
  %82 = or disjoint i64 %80, %81
  store i64 %82, ptr %75, align 8
  %83 = icmp eq i64 %80, 0
  br i1 %83, label %84, label %_ZN4cvc58internal12NodeTemplateILb1EED2Ev.exit12, !prof !10

84:                                               ; preds = %78
  invoke void @_ZN4cvc58internal4expr9NodeValue15markForDeletionEv(ptr noundef nonnull align 8 dereferenceable(24) %75)
          to label %_ZN4cvc58internal12NodeTemplateILb1EED2Ev.exit12 unwind label %85

85:                                               ; preds = %84
  %86 = landingpad { ptr, i32 }
          catch ptr null
  %87 = extractvalue { ptr, i32 } %86, 0
  call void @__clang_call_terminate(ptr %87) #25
  unreachable

_ZN4cvc58internal12NodeTemplateILb1EED2Ev.exit12: ; preds = %73, %78, %84
  %88 = icmp ne ptr %63, %74
  call void @llvm.lifetime.end.p0(i64 8, ptr nonnull %4) #24
  ret i1 %88

89:                                               ; preds = %35
  %90 = landingpad { ptr, i32 }
          cleanup
  br label %93

91:                                               ; preds = %_ZN4cvc58internal12NodeTemplateILb1EEC2ERKS2_.exit7
  %92 = landingpad { ptr, i32 }
          cleanup
  call void @_ZN4cvc58internal12NodeTemplateILb1EED2Ev(ptr noundef nonnull align 8 dereferenceable(8) %6) #24
  br label %93

93:                                               ; preds = %89, %91, %.body
  %.sink = phi ptr [ %4, %.body ], [ %5, %91 ], [ %5, %89 ]
  %.pn5 = phi { ptr, i32 } [ %72, %.body ], [ %92, %91 ], [ %90, %89 ]
  call void @_ZN4cvc58internal12NodeTemplateILb1EED2Ev(ptr noundef nonnull align 8 dereferenceable(8) %.sink) #24
  call void @llvm.lifetime.end.p0(i64 8, ptr nonnull %4) #24
  resume { ptr, i32 } %.pn5
}